; Function Attrs: mustprogress nofree norecurse nosync nounwind willreturn memory(read, argmem: readwrite, inaccessiblemem: none) uwtable
define dso_local range(i32 0, 2) i32 @stbtt_GetGlyphBox(ptr noundef readonly captures(none) %0, i32 noundef %1, ptr noundef writeonly %2, ptr noundef writeonly %3, ptr noundef writeonly %4, ptr noundef writeonly %5) local_unnamed_addr #4 {
  %7 = getelementptr inbounds nuw i8, ptr %0, i64 20
  %8 = load i32, ptr %7, align 4
  %.not.i = icmp slt i32 %1, %8
  br i1 %.not.i, label %9, label %_ZL20stbtt__GetGlyfOffsetPK14stbtt_fontinfoi.exit.thread

9:                                                ; preds = %6
  %10 = getelementptr inbounds nuw i8, ptr %0, i64 52
  %11 = load i32, ptr %10, align 4
  %12 = icmp sgt i32 %11, 1
  br i1 %12, label %_ZL20stbtt__GetGlyfOffsetPK14stbtt_fontinfoi.exit.thread, label %13

13:                                               ; preds = %9
  %14 = icmp eq i32 %11, 0
  %15 = getelementptr inbounds nuw i8, ptr %0, i64 32
  %16 = load i32, ptr %15, align 8
  %17 = getelementptr inbounds nuw i8, ptr %0, i64 8
  %18 = load ptr, ptr %17, align 8
  %19 = getelementptr inbounds nuw i8, ptr %0, i64 24
  %20 = load i32, ptr %19, align 8
  %21 = sext i32 %20 to i64
  %22 = getelementptr inbounds i8, ptr %18, i64 %21
  br i1 %14, label %23, label %40

23:                                               ; preds = %13
  %24 = shl nsw i32 %1, 1
  %25 = sext i32 %24 to i64
  %26 = getelementptr inbounds i8, ptr %22, i64 %25
  %.val28.i = load i8, ptr %26, align 1
  %27 = getelementptr i8, ptr %26, i64 1
  %.val29.i = load i8, ptr %27, align 1
  %28 = zext i8 %.val28.i to i32
  %29 = zext i8 %.val29.i to i32
  %30 = shl nuw nsw i32 %28, 9
  %31 = shl nuw nsw i32 %29, 1
  %32 = or disjoint i32 %31, %30
  %33 = getelementptr inbounds nuw i8, ptr %26, i64 2
  %.val.i = load i8, ptr %33, align 1
  %34 = getelementptr i8, ptr %26, i64 3
  %.val27.i = load i8, ptr %34, align 1
  %35 = zext i8 %.val.i to i32
  %36 = zext i8 %.val27.i to i32
  %37 = shl nuw nsw i32 %35, 9
  %38 = shl nuw nsw i32 %36, 1
  %39 = or disjoint i32 %38, %37
  br label %79

40:                                               ; preds = %13
  %41 = shl nsw i32 %1, 2
  %42 = sext i32 %41 to i64
  %43 = getelementptr inbounds i8, ptr %22, i64 %42
  %44 = load i8, ptr %43, align 1
  %45 = zext i8 %44 to i32
  %46 = shl nuw i32 %45, 24
  %47 = getelementptr inbounds nuw i8, ptr %43, i64 1
  %48 = load i8, ptr %47, align 1
  %49 = zext i8 %48 to i32
  %50 = shl nuw nsw i32 %49, 16
  %51 = or disjoint i32 %50, %46
  %52 = getelementptr inbounds nuw i8, ptr %43, i64 2
  %53 = load i8, ptr %52, align 1
  %54 = zext i8 %53 to i32
  %55 = shl nuw nsw i32 %54, 8
  %56 = or disjoint i32 %51, %55
  %57 = getelementptr inbounds nuw i8, ptr %43, i64 3
  %58 = load i8, ptr %57, align 1
  %59 = zext i8 %58 to i32
  %60 = or disjoint i32 %56, %59
  %61 = getelementptr inbounds nuw i8, ptr %43, i64 4
  %62 = load i8, ptr %61, align 1
  %63 = zext i8 %62 to i32
  %64 = shl nuw i32 %63, 24
  %65 = getelementptr inbounds nuw i8, ptr %43, i64 5
  %66 = load i8, ptr %65, align 1
  %67 = zext i8 %66 to i32
  %68 = shl nuw nsw i32 %67, 16
  %69 = or disjoint i32 %68, %64
  %70 = getelementptr inbounds nuw i8, ptr %43, i64 6
  %71 = load i8, ptr %70, align 1
  %72 = zext i8 %71 to i32
  %73 = shl nuw nsw i32 %72, 8
  %74 = or disjoint i32 %69, %73
  %75 = getelementptr inbounds nuw i8, ptr %43, i64 7
  %76 = load i8, ptr %75, align 1
  %77 = zext i8 %76 to i32
  %78 = or disjoint i32 %74, %77
  br label %79

79:                                               ; preds = %40, %23
  %.sink.i = phi i32 [ %78, %40 ], [ %39, %23 ]
  %.pn.i = phi i32 [ %60, %40 ], [ %32, %23 ]
  %.023.i = add i32 %.pn.i, %16
  %80 = icmp eq i32 %.pn.i, %.sink.i
  %81 = icmp slt i32 %.023.i, 0
  %or.cond = select i1 %80, i1 true, i1 %81
  br i1 %or.cond, label %_ZL20stbtt__GetGlyfOffsetPK14stbtt_fontinfoi.exit.thread, label %82

82:                                               ; preds = %79
  %.not = icmp eq ptr %2, null
  br i1 %.not, label %93, label %83

83:                                               ; preds = %82
  %84 = zext nneg i32 %.023.i to i64
  %85 = getelementptr inbounds nuw i8, ptr %18, i64 %84
  %86 = getelementptr inbounds nuw i8, ptr %85, i64 2
  %.val32 = load i8, ptr %86, align 1
  %87 = getelementptr i8, ptr %85, i64 3
  %.val33 = load i8, ptr %87, align 1
  %88 = zext i8 %.val32 to i16
  %89 = shl nuw i16 %88, 8
  %90 = zext i8 %.val33 to i16
  %91 = or disjoint i16 %89, %90
  %92 = sext i16 %91 to i32
  store i32 %92, ptr %2, align 4
  br label %93

93:                                               ; preds = %83, %82
  %.not24 = icmp eq ptr %3, null
  br i1 %.not24, label %105, label %94

94:                                               ; preds = %93
  %95 = load ptr, ptr %17, align 8
  %96 = zext nneg i32 %.023.i to i64
  %97 = getelementptr inbounds nuw i8, ptr %95, i64 %96
  %98 = getelementptr inbounds nuw i8, ptr %97, i64 4
  %.val30 = load i8, ptr %98, align 1
  %99 = getelementptr i8, ptr %97, i64 5
  %.val31 = load i8, ptr %99, align 1
  %100 = zext i8 %.val30 to i16
  %101 = shl nuw i16 %100, 8
  %102 = zext i8 %.val31 to i16
  %103 = or disjoint i16 %101, %102
  %104 = sext i16 %103 to i32
  store i32 %104, ptr %3, align 4
  br label %105

105:                                              ; preds = %94, %93
  %.not25 = icmp eq ptr %4, null
  br i1 %.not25, label %117, label %106

106:                                              ; preds = %105
  %107 = load ptr, ptr %17, align 8
  %108 = zext nneg i32 %.023.i to i64
  %109 = getelementptr inbounds nuw i8, ptr %107, i64 %108
  %110 = getelementptr inbounds nuw i8, ptr %109, i64 6
  %.val28 = load i8, ptr %110, align 1
  %111 = getelementptr i8, ptr %109, i64 7
  %.val29 = load i8, ptr %111, align 1
  %112 = zext i8 %.val28 to i16
  %113 = shl nuw i16 %112, 8
  %114 = zext i8 %.val29 to i16
  %115 = or disjoint i16 %113, %114
  %116 = sext i16 %115 to i32
  store i32 %116, ptr %4, align 4
  br label %117

117:                                              ; preds = %106, %105
  %.not26 = icmp eq ptr %5, null
  br i1 %.not26, label %_ZL20stbtt__GetGlyfOffsetPK14stbtt_fontinfoi.exit.thread, label %118

118:                                              ; preds = %117
  %119 = load ptr, ptr %17, align 8
  %120 = zext nneg i32 %.023.i to i64
  %121 = getelementptr inbounds nuw i8, ptr %119, i64 %120
  %122 = getelementptr inbounds nuw i8, ptr %121, i64 8
  %.val = load i8, ptr %122, align 1
  %123 = getelementptr i8, ptr %121, i64 9
  %.val27 = load i8, ptr %123, align 1
  %124 = zext i8 %.val to i16
  %125 = shl nuw i16 %124, 8
  %126 = zext i8 %.val27 to i16
  %127 = or disjoint i16 %125, %126
  %128 = sext i16 %127 to i32
  store i32 %128, ptr %5, align 4
  br label %_ZL20stbtt__GetGlyfOffsetPK14stbtt_fontinfoi.exit.thread

_ZL20stbtt__GetGlyfOffsetPK14stbtt_fontinfoi.exit.thread: ; preds = %79, %9, %6, %117, %118
  %.0 = phi i32 [ 1, %118 ], [ 1, %117 ], [ 0, %6 ], [ 0, %9 ], [ 0, %79 ]
  ret i32 %.0
}